; ModuleID = '56/59.c'
source_filename = "56/59.c"
target datalayout = "e-m:e-p270:32:32-p271:32:32-p272:64:64-i64:64-f80:128-n8:16:32:64-S128"
target triple = "x86_64-pc-linux-gnu"

@.str = private unnamed_addr constant [3 x i8] c"%d\00", align 1
@.str.1 = private unnamed_addr constant [4 x i8] c"%d\0A\00", align 1

; Function Attrs: noinline nounwind uwtable
define dso_local i32 @main(i32 %0, i8** %1) #0 {
  %3 = alloca i32, align 4
  %4 = alloca i32, align 4
  %5 = alloca i8**, align 8
  %6 = alloca i32, align 4
  %7 = alloca i32, align 4
  %8 = alloca i32, align 4
  %9 = alloca i32, align 4
  %10 = alloca i32, align 4
  %11 = alloca i32, align 4
  %12 = alloca [7 x i32], align 16
  store i32 0, i32* %3, align 4
  store i32 %0, i32* %4, align 4
  store i8** %1, i8*** %5, align 8
  store i32 0, i32* %10, align 4
  store i32 0, i32* %11, align 4
  %13 = call i32 (i8*, ...) @__isoc99_scanf(i8* getelementptr inbounds ([3 x i8], [3 x i8]* @.str, i64 0, i64 0), i32* %6)
  %14 = load i32, i32* %6, align 4
  store i32 %14, i32* %9, align 4
  br label %15

15:                                               ; preds = %18, %2
  %16 = load i32, i32* %9, align 4
  %17 = icmp sgt i32 %16, 0
  br i1 %17, label %18, label %23

18:                                               ; preds = %15
  %19 = load i32, i32* %9, align 4
  %20 = sdiv i32 %19, 10
  store i32 %20, i32* %9, align 4
  %21 = load i32, i32* %10, align 4
  %22 = add nsw i32 %21, 1
  store i32 %22, i32* %10, align 4
  br label %15

23:                                               ; preds = %15
  %24 = load i32, i32* %10, align 4
  store i32 %24, i32* %7, align 4
  br label %25

25:                                               ; preds = %54, %23
  %26 = load i32, i32* %7, align 4
  %27 = icmp sge i32 %26, 1
  br i1 %27, label %28, label %57

28:                                               ; preds = %25
  %29 = load i32, i32* %6, align 4
  %30 = sitofp i32 %29 to double
  %31 = load i32, i32* %7, align 4
  %32 = sub nsw i32 %31, 1
  %33 = sitofp i32 %32 to double
  %34 = call double @pow(double 1.000000e+01, double %33) #3
  %35 = fdiv double %30, %34
  %36 = fptosi double %35 to i32
  %37 = load i32, i32* %7, align 4
  %38 = sext i32 %37 to i64
  %39 = getelementptr inbounds [7 x i32], [7 x i32]* %12, i64 0, i64 %38
  store i32 %36, i32* %39, align 4
  %40 = load i32, i32* %6, align 4
  %41 = sitofp i32 %40 to double
  %42 = load i32, i32* %7, align 4
  %43 = sext i32 %42 to i64
  %44 = getelementptr inbounds [7 x i32], [7 x i32]* %12, i64 0, i64 %43
  %45 = load i32, i32* %44, align 4
  %46 = sitofp i32 %45 to double
  %47 = load i32, i32* %7, align 4
  %48 = sub nsw i32 %47, 1
  %49 = sitofp i32 %48 to double
  %50 = call double @pow(double 1.000000e+01, double %49) #3
  %51 = fmul double %46, %50
  %52 = fsub double %41, %51
  %53 = fptosi double %52 to i32
  store i32 %53, i32* %6, align 4
  br label %54

54:                                               ; preds = %28
  %55 = load i32, i32* %7, align 4
  %56 = add nsw i32 %55, -1
  store i32 %56, i32* %7, align 4
  br label %25

57:                                               ; preds = %25
  store i32 1, i32* %7, align 4
  br label %58

58:                                               ; preds = %78, %57
  %59 = load i32, i32* %7, align 4
  %60 = load i32, i32* %10, align 4
  %61 = icmp sle i32 %59, %60
  br i1 %61, label %62, label %81

62:                                               ; preds = %58
  %63 = load i32, i32* %11, align 4
  %64 = sitofp i32 %63 to double
  %65 = load i32, i32* %7, align 4
  %66 = sext i32 %65 to i64
  %67 = getelementptr inbounds [7 x i32], [7 x i32]* %12, i64 0, i64 %66
  %68 = load i32, i32* %67, align 4
  %69 = sitofp i32 %68 to double
  %70 = load i32, i32* %10, align 4
  %71 = load i32, i32* %7, align 4
  %72 = sub nsw i32 %70, %71
  %73 = sitofp i32 %72 to double
  %74 = call double @pow(double 1.000000e+01, double %73) #3
  %75 = fmul double %69, %74
  %76 = fadd double %64, %75
  %77 = fptosi double %76 to i32
  store i32 %77, i32* %11, align 4
  br label %78

78:                                               ; preds = %62
  %79 = load i32, i32* %7, align 4
  %80 = add nsw i32 %79, 1
  store i32 %80, i32* %7, align 4
  br label %58

81:                                               ; preds = %58
  %82 = load i32, i32* %11, align 4
  %83 = call i32 (i8*, ...) @printf(i8* getelementptr inbounds ([4 x i8], [4 x i8]* @.str.1, i64 0, i64 0), i32 %82)
  ret i32 0
}

declare dso_local i32 @__isoc99_scanf(i8*, ...) #1

; Function Attrs: nounwind
declare dso_local double @pow(double, double) #2

declare dso_local i32 @printf(i8*, ...) #1


!llvm.module.flags = !{!0}
!llvm.ident = !{!1}

!0 = !{i32 1, !"wchar_size", i32 4}
!1 = !{!"clang version 10.0.0-4ubuntu1 "}
